target datalayout = "e-m:e-p270:32:32-p271:32:32-p272:64:64-i64:64-i128:128-f80:128-n8:16:32:64-S128"
target triple = "x86_64-pc-linux-gnu"

@hf_noe_pcode = internal global i32 0, align 4
@hf_noe_psize = internal global i32 0, align 4
@hf_noe_aindx = internal global i32 0, align 4
@hf_noe_property_item_bool = internal global i32 0, align 4
@hf_noe_property_item_u8 = internal global i32 0, align 4
@hf_noe_property_item_u16 = internal global i32 0, align 4
@hf_noe_property_item_u24 = internal global i32 0, align 4
@hf_noe_property_item_u32 = internal global i32 0, align 4
@hf_noe_property_item_bytes = internal global i32 0, align 4
@hf_noe_property_item_utf8 = internal global i32 0, align 4
@ett_body = internal global i32 0, align 4
@.str.441 = private unnamed_addr constant [17 x i8] c"NOE Message Body\00", align 1

; Function Attrs: nounwind uwtable
define internal i32 @property_is_bool(i8 noundef zeroext %0, i8 noundef zeroext %1) #0 {
  %3 = alloca i8, align 1
  %4 = alloca i8, align 1
  %5 = alloca i32, align 4
  store i8 %0, ptr %3, align 1
  store i8 %1, ptr %4, align 1
  %6 = load i8, ptr %3, align 1
  %7 = zext i8 %6 to i32
  %8 = shl i32 %7, 8
  %9 = load i8, ptr %4, align 1
  %10 = zext i8 %9 to i32
  %11 = or i32 %8, %10
  store i32 %11, ptr %5, align 4
  %12 = call ptr @bsearch(ptr noundef %5, ptr noundef @bool_properties, i64 noundef 61, i64 noundef 4, ptr noundef @compcp)
  %13 = icmp ne ptr %12, null
  %14 = zext i1 %13 to i32
  ret i32 %14
}

; Function Attrs: nounwind uwtable
define internal i32 @property_is_utf8(i8 noundef zeroext %0, i8 noundef zeroext %1) #0 {
  %3 = alloca i8, align 1
  %4 = alloca i8, align 1
  %5 = alloca i32, align 4
  store i8 %0, ptr %3, align 1
  store i8 %1, ptr %4, align 1
  %6 = load i8, ptr %3, align 1
  %7 = zext i8 %6 to i32
  %8 = shl i32 %7, 8
  %9 = load i8, ptr %4, align 1
  %10 = zext i8 %9 to i32
  %11 = or i32 %8, %10
  store i32 %11, ptr %5, align 4
  %12 = call ptr @bsearch(ptr noundef %5, ptr noundef @utf8_properties, i64 noundef 46, i64 noundef 4, ptr noundef @compcp)
  %13 = icmp ne ptr %12, null
  %14 = zext i1 %13 to i32
  ret i32 %14
}

; Function Attrs: nounwind uwtable
define internal void @decode_tlv(ptr noundef %0, ptr noundef %1, i8 noundef zeroext %2, i32 noundef %3, i32 noundef %4) #0 {
  %6 = alloca ptr, align 8
  %7 = alloca ptr, align 8
  %8 = alloca i8, align 1
  %9 = alloca i32, align 4
  %10 = alloca i32, align 4
  %11 = alloca ptr, align 8
  %12 = alloca i8, align 1
  %13 = alloca i16, align 2
  store ptr %0, ptr %6, align 8
  store ptr %1, ptr %7, align 8
  store i8 %2, ptr %8, align 1
  store i32 %3, ptr %9, align 4
  store i32 %4, ptr %10, align 4
  %14 = load ptr, ptr %6, align 8
  %15 = load ptr, ptr %7, align 8
  %16 = load i32, ptr %9, align 4
  %17 = load i32, ptr %10, align 4
  %18 = load i32, ptr @ett_body, align 4
  %19 = call ptr @proto_tree_add_subtree(ptr noundef %14, ptr noundef %15, i32 noundef %16, i32 noundef %17, i32 noundef %18, ptr noundef null, ptr noundef @.str.441)
  store ptr %19, ptr %11, align 8
  br label %20

20:                                               ; preds = %147, %5
  %21 = load i32, ptr %10, align 4
  %22 = icmp ugt i32 %21, 0
  br i1 %22, label %23, label %156

23:                                               ; preds = %20
  %24 = load ptr, ptr %7, align 8
  %25 = load i32, ptr %9, align 4
  %26 = call zeroext i8 @tvb_get_guint8(ptr noundef %24, i32 noundef %25)
  store i8 %26, ptr %12, align 1
  %27 = load ptr, ptr %11, align 8
  %28 = load i32, ptr @hf_noe_pcode, align 4
  %29 = load ptr, ptr %7, align 8
  %30 = load i32, ptr %9, align 4
  %31 = call ptr @proto_tree_add_item(ptr noundef %27, i32 noundef %28, ptr noundef %29, i32 noundef %30, i32 noundef 1, i32 noundef 0)
  %32 = load i32, ptr %9, align 4
  %33 = add i32 %32, 1
  store i32 %33, ptr %9, align 4
  %34 = load i32, ptr %10, align 4
  %35 = sub i32 %34, 1
  store i32 %35, ptr %10, align 4
  %36 = load i8, ptr %12, align 1
  %37 = zext i8 %36 to i32
  %38 = icmp sge i32 %37, 128
  br i1 %38, label %39, label %49

39:                                               ; preds = %23
  %40 = load ptr, ptr %11, align 8
  %41 = load i32, ptr @hf_noe_aindx, align 4
  %42 = load ptr, ptr %7, align 8
  %43 = load i32, ptr %9, align 4
  %44 = call ptr @proto_tree_add_item(ptr noundef %40, i32 noundef %41, ptr noundef %42, i32 noundef %43, i32 noundef 1, i32 noundef 0)
  %45 = load i32, ptr %9, align 4
  %46 = add i32 %45, 1
  store i32 %46, ptr %9, align 4
  %47 = load i32, ptr %10, align 4
  %48 = sub i32 %47, 1
  store i32 %48, ptr %10, align 4
  br label %49

49:                                               ; preds = %39, %23
  %50 = load ptr, ptr %7, align 8
  %51 = load i32, ptr %9, align 4
  %52 = call zeroext i8 @tvb_get_guint8(ptr noundef %50, i32 noundef %51)
  %53 = zext i8 %52 to i16
  store i16 %53, ptr %13, align 2
  %54 = load i16, ptr %13, align 2
  %55 = zext i16 %54 to i32
  %56 = and i32 %55, 128
  %57 = icmp ne i32 %56, 0
  br i1 %57, label %58, label %75

58:                                               ; preds = %49
  %59 = load ptr, ptr %7, align 8
  %60 = load i32, ptr %9, align 4
  %61 = call zeroext i16 @tvb_get_ntohs(ptr noundef %59, i32 noundef %60)
  store i16 %61, ptr %13, align 2
  %62 = load i16, ptr %13, align 2
  %63 = zext i16 %62 to i32
  %64 = and i32 %63, 32767
  %65 = trunc i32 %64 to i16
  store i16 %65, ptr %13, align 2
  %66 = load ptr, ptr %11, align 8
  %67 = load i32, ptr @hf_noe_psize, align 4
  %68 = load ptr, ptr %7, align 8
  %69 = load i32, ptr %9, align 4
  %70 = call ptr @proto_tree_add_item(ptr noundef %66, i32 noundef %67, ptr noundef %68, i32 noundef %69, i32 noundef 2, i32 noundef 0)
  %71 = load i32, ptr %9, align 4
  %72 = add i32 %71, 2
  store i32 %72, ptr %9, align 4
  %73 = load i32, ptr %10, align 4
  %74 = sub i32 %73, 2
  store i32 %74, ptr %10, align 4
  br label %85

75:                                               ; preds = %49
  %76 = load ptr, ptr %11, align 8
  %77 = load i32, ptr @hf_noe_psize, align 4
  %78 = load ptr, ptr %7, align 8
  %79 = load i32, ptr %9, align 4
  %80 = call ptr @proto_tree_add_item(ptr noundef %76, i32 noundef %77, ptr noundef %78, i32 noundef %79, i32 noundef 1, i32 noundef 0)
  %81 = load i32, ptr %9, align 4
  %82 = add i32 %81, 1
  store i32 %82, ptr %9, align 4
  %83 = load i32, ptr %10, align 4
  %84 = sub i32 %83, 1
  store i32 %84, ptr %10, align 4
  br label %85

85:                                               ; preds = %75, %58
  %86 = load i8, ptr %8, align 1
  %87 = load i8, ptr %12, align 1
  %88 = call i32 @property_is_utf8(i8 noundef zeroext %86, i8 noundef zeroext %87)
  %89 = icmp ne i32 %88, 0
  br i1 %89, label %90, label %98

90:                                               ; preds = %85
  %91 = load ptr, ptr %11, align 8
  %92 = load i32, ptr @hf_noe_property_item_utf8, align 4
  %93 = load ptr, ptr %7, align 8
  %94 = load i32, ptr %9, align 4
  %95 = load i16, ptr %13, align 2
  %96 = zext i16 %95 to i32
  %97 = call ptr @proto_tree_add_item(ptr noundef %91, i32 noundef %92, ptr noundef %93, i32 noundef %94, i32 noundef %96, i32 noundef 50331648)
  br label %147

98:                                               ; preds = %85
  %99 = load i16, ptr %13, align 2
  %100 = zext i16 %99 to i32
  switch i32 %100, label %138 [
    i32 0, label %101
    i32 1, label %102
    i32 2, label %120
    i32 3, label %126
    i32 4, label %132
  ]

101:                                              ; preds = %98
  br label %146

102:                                              ; preds = %98
  %103 = load i8, ptr %8, align 1
  %104 = load i8, ptr %12, align 1
  %105 = call i32 @property_is_bool(i8 noundef zeroext %103, i8 noundef zeroext %104)
  %106 = icmp ne i32 %105, 0
  br i1 %106, label %107, label %113

107:                                              ; preds = %102
  %108 = load ptr, ptr %11, align 8
  %109 = load i32, ptr @hf_noe_property_item_bool, align 4
  %110 = load ptr, ptr %7, align 8
  %111 = load i32, ptr %9, align 4
  %112 = call ptr @proto_tree_add_item(ptr noundef %108, i32 noundef %109, ptr noundef %110, i32 noundef %111, i32 noundef 1, i32 noundef 0)
  br label %119

113:                                              ; preds = %102
  %114 = load ptr, ptr %11, align 8
  %115 = load i32, ptr @hf_noe_property_item_u8, align 4
  %116 = load ptr, ptr %7, align 8
  %117 = load i32, ptr %9, align 4
  %118 = call ptr @proto_tree_add_item(ptr noundef %114, i32 noundef %115, ptr noundef %116, i32 noundef %117, i32 noundef 1, i32 noundef 0)
  br label %119

119:                                              ; preds = %113, %107
  br label %146

120:                                              ; preds = %98
  %121 = load ptr, ptr %11, align 8
  %122 = load i32, ptr @hf_noe_property_item_u16, align 4
  %123 = load ptr, ptr %7, align 8
  %124 = load i32, ptr %9, align 4
  %125 = call ptr @proto_tree_add_item(ptr noundef %121, i32 noundef %122, ptr noundef %123, i32 noundef %124, i32 noundef 2, i32 noundef 0)
  br label %146

126:                                              ; preds = %98
  %127 = load ptr, ptr %11, align 8
  %128 = load i32, ptr @hf_noe_property_item_u24, align 4
  %129 = load ptr, ptr %7, align 8
  %130 = load i32, ptr %9, align 4
  %131 = call ptr @proto_tree_add_item(ptr noundef %127, i32 noundef %128, ptr noundef %129, i32 noundef %130, i32 noundef 3, i32 noundef 0)
  br label %146

132:                                              ; preds = %98
  %133 = load ptr, ptr %11, align 8
  %134 = load i32, ptr @hf_noe_property_item_u32, align 4
  %135 = load ptr, ptr %7, align 8
  %136 = load i32, ptr %9, align 4
  %137 = call ptr @proto_tree_add_item(ptr noundef %133, i32 noundef %134, ptr noundef %135, i32 noundef %136, i32 noundef 4, i32 noundef 0)
  br label %146

138:                                              ; preds = %98
  %139 = load ptr, ptr %11, align 8
  %140 = load i32, ptr @hf_noe_property_item_bytes, align 4
  %141 = load ptr, ptr %7, align 8
  %142 = load i32, ptr %9, align 4
  %143 = load i16, ptr %13, align 2
  %144 = zext i16 %143 to i32
  %145 = call ptr @proto_tree_add_item(ptr noundef %139, i32 noundef %140, ptr noundef %141, i32 noundef %142, i32 noundef %144, i32 noundef 0)
  br label %146

146:                                              ; preds = %138, %132, %126, %120, %119, %101
  br label %147

147:                                              ; preds = %146, %90
  %148 = load i16, ptr %13, align 2
  %149 = zext i16 %148 to i32
  %150 = load i32, ptr %9, align 4
  %151 = add i32 %150, %149
  store i32 %151, ptr %9, align 4
  %152 = load i16, ptr %13, align 2
  %153 = zext i16 %152 to i32
  %154 = load i32, ptr %10, align 4
  %155 = sub i32 %154, %153
  store i32 %155, ptr %10, align 4
  br label %20, !llvm.loop !6

156:                                              ; preds = %20
  ret void
}