; Function Attrs: nounwind uwtable
define internal fastcc void @decode_tlv(ptr noundef %0, ptr noundef %1, i8 noundef zeroext %2, i32 noundef range(i32 5, 9) %3, i32 noundef range(i32 -6, 65533) %4) unnamed_addr #0 {
  %6 = alloca i32, align 4
  %7 = alloca i32, align 4
  %8 = load i32, ptr @ett_body, align 4
  %9 = tail call ptr @proto_tree_add_subtree(ptr noundef %0, ptr noundef %1, i32 noundef %3, i32 noundef %4, i32 noundef %8, ptr noundef null, ptr noundef nonnull @.str.441) #5
  %.not74 = icmp eq i32 %4, 0
  br i1 %.not74, label %._crit_edge, label %.lr.ph

.lr.ph:                                           ; preds = %5
  %10 = zext i8 %2 to i32
  %11 = shl nuw nsw i32 %10, 8
  br label %12

12:                                               ; preds = %.lr.ph, %65
  %.06576 = phi i32 [ %3, %.lr.ph ], [ %67, %65 ]
  %.06675 = phi i32 [ %4, %.lr.ph ], [ %68, %65 ]
  %13 = call zeroext i8 @tvb_get_guint8(ptr noundef %1, i32 noundef %.06576) #5
  %14 = load i32, ptr @hf_noe_pcode, align 4
  %15 = call ptr @proto_tree_add_item(ptr noundef %9, i32 noundef %14, ptr noundef %1, i32 noundef %.06576, i32 noundef 1, i32 noundef 0) #5
  %16 = add i32 %.06576, 1
  %17 = add i32 %.06675, -1
  %18 = icmp slt i8 %13, 0
  br i1 %18, label %19, label %24

19:                                               ; preds = %12
  %20 = load i32, ptr @hf_noe_aindx, align 4
  %21 = call ptr @proto_tree_add_item(ptr noundef %9, i32 noundef %20, ptr noundef %1, i32 noundef %16, i32 noundef 1, i32 noundef 0) #5
  %22 = add i32 %.06576, 2
  %23 = add i32 %.06675, -2
  br label %24

24:                                               ; preds = %19, %12
  %.167 = phi i32 [ %23, %19 ], [ %17, %12 ]
  %.1 = phi i32 [ %22, %19 ], [ %16, %12 ]
  %25 = call zeroext i8 @tvb_get_guint8(ptr noundef %1, i32 noundef %.1) #5
  %.not69 = icmp sgt i8 %25, -1
  br i1 %.not69, label %29, label %26

26:                                               ; preds = %24
  %27 = call zeroext i16 @tvb_get_ntohs(ptr noundef %1, i32 noundef %.1) #5
  %28 = and i16 %27, 32767
  br label %31

29:                                               ; preds = %24
  %30 = zext nneg i8 %25 to i16
  br label %31

31:                                               ; preds = %29, %26
  %.sink79 = phi i32 [ 1, %29 ], [ 2, %26 ]
  %.sink = phi i32 [ -1, %29 ], [ -2, %26 ]
  %.0 = phi i16 [ %30, %29 ], [ %28, %26 ]
  %32 = load i32, ptr @hf_noe_psize, align 4
  %33 = call ptr @proto_tree_add_item(ptr noundef %9, i32 noundef %32, ptr noundef %1, i32 noundef %.1, i32 noundef %.sink79, i32 noundef 0) #5
  %34 = add i32 %.1, %.sink79
  %35 = add i32 %.167, %.sink
  call void @llvm.lifetime.start.p0(i64 4, ptr nonnull %7)
  %36 = zext i8 %13 to i32
  %37 = or disjoint i32 %11, %36
  store i32 %37, ptr %7, align 4
  %38 = call ptr @bsearch(ptr noundef nonnull %7, ptr noundef nonnull @utf8_properties, i64 noundef 46, i64 noundef 4, ptr noundef nonnull @compcp) #5
  %.not72 = icmp eq ptr %38, null
  call void @llvm.lifetime.end.p0(i64 4, ptr nonnull %7)
  br i1 %.not72, label %43, label %39

39:                                               ; preds = %31
  %40 = load i32, ptr @hf_noe_property_item_utf8, align 4
  %41 = zext nneg i16 %.0 to i32
  %42 = call ptr @proto_tree_add_item(ptr noundef %9, i32 noundef %40, ptr noundef %1, i32 noundef %34, i32 noundef %41, i32 noundef 50331648) #5
  br label %65

43:                                               ; preds = %31
  switch i16 %.0, label %61 [
    i16 0, label %65
    i16 1, label %44
    i16 2, label %52
    i16 3, label %55
    i16 4, label %58
  ]

44:                                               ; preds = %43
  call void @llvm.lifetime.start.p0(i64 4, ptr nonnull %6)
  store i32 %37, ptr %6, align 4
  %45 = call ptr @bsearch(ptr noundef nonnull %6, ptr noundef nonnull @bool_properties, i64 noundef 61, i64 noundef 4, ptr noundef nonnull @compcp) #5
  %.not73 = icmp eq ptr %45, null
  call void @llvm.lifetime.end.p0(i64 4, ptr nonnull %6)
  br i1 %.not73, label %49, label %46

46:                                               ; preds = %44
  %47 = load i32, ptr @hf_noe_property_item_bool, align 4
  %48 = call ptr @proto_tree_add_item(ptr noundef %9, i32 noundef %47, ptr noundef %1, i32 noundef %34, i32 noundef 1, i32 noundef 0) #5
  br label %65

49:                                               ; preds = %44
  %50 = load i32, ptr @hf_noe_property_item_u8, align 4
  %51 = call ptr @proto_tree_add_item(ptr noundef %9, i32 noundef %50, ptr noundef %1, i32 noundef %34, i32 noundef 1, i32 noundef 0) #5
  br label %65

52:                                               ; preds = %43
  %53 = load i32, ptr @hf_noe_property_item_u16, align 4
  %54 = call ptr @proto_tree_add_item(ptr noundef %9, i32 noundef %53, ptr noundef %1, i32 noundef %34, i32 noundef 2, i32 noundef 0) #5
  br label %65

55:                                               ; preds = %43
  %56 = load i32, ptr @hf_noe_property_item_u24, align 4
  %57 = call ptr @proto_tree_add_item(ptr noundef %9, i32 noundef %56, ptr noundef %1, i32 noundef %34, i32 noundef 3, i32 noundef 0) #5
  br label %65

58:                                               ; preds = %43
  %59 = load i32, ptr @hf_noe_property_item_u32, align 4
  %60 = call ptr @proto_tree_add_item(ptr noundef %9, i32 noundef %59, ptr noundef %1, i32 noundef %34, i32 noundef 4, i32 noundef 0) #5
  br label %65

61:                                               ; preds = %43
  %62 = zext nneg i16 %.0 to i32
  %63 = load i32, ptr @hf_noe_property_item_bytes, align 4
  %64 = call ptr @proto_tree_add_item(ptr noundef %9, i32 noundef %63, ptr noundef %1, i32 noundef %34, i32 noundef %62, i32 noundef 0) #5
  br label %65

65:                                               ; preds = %52, %55, %58, %61, %43, %49, %46, %39
  %66 = zext nneg i16 %.0 to i32
  %67 = add i32 %34, %66
  %68 = sub i32 %35, %66
  %.not = icmp eq i32 %68, 0
  br i1 %.not, label %._crit_edge, label %12, !llvm.loop !7

._crit_edge:                                      ; preds = %65, %5
  ret void
}